target datalayout = "e-m:e-p270:32:32-p271:32:32-p272:64:64-i64:64-i128:128-f80:128-n8:16:32:64-S128"
target triple = "x86_64-pc-linux-gnu"

@.str.14 = private unnamed_addr constant [33 x i8] c"../openssl/test/sslcorrupttest.c\00", align 1
@.str.15 = private unnamed_addr constant [28 x i8] c"Error parsing test options\0A\00", align 1
@.str.16 = private unnamed_addr constant [28 x i8] c"cert = test_get_argument(0)\00", align 1
@cert = internal global ptr null, align 8
@.str.17 = private unnamed_addr constant [31 x i8] c"privkey = test_get_argument(1)\00", align 1
@privkey = internal global ptr null, align 8
@.str.18 = private unnamed_addr constant [17 x i8] c"test_ssl_corrupt\00", align 1
@cipher_list = internal global ptr null, align 8
@.str.19 = private unnamed_addr constant [39 x i8] c"ctx = SSL_CTX_new(TLS_server_method())\00", align 1
@.str.20 = private unnamed_addr constant [19 x i8] c"ssl = SSL_new(ctx)\00", align 1
@.str.21 = private unnamed_addr constant [45 x i8] c"sk_ciphers = SSL_get1_supported_ciphers(ssl)\00", align 1
@.str.22 = private unnamed_addr constant [12 x i8] c"cipher_list\00", align 1
@.str.23 = private unnamed_addr constant [2 x i8] c"j\00", align 1
@.str.24 = private unnamed_addr constant [2 x i8] c"0\00", align 1

; Function Attrs: inlinehint nounwind uwtable
define internal ptr @ossl_check_SSL_CIPHER_sk_type(ptr noundef %0) #3 {
  %2 = alloca ptr, align 8
  store ptr %0, ptr %2, align 8, !tbaa !15
  %3 = load ptr, ptr %2, align 8, !tbaa !15
  ret ptr %3
}

; Function Attrs: inlinehint nounwind uwtable
define internal ptr @ossl_check_const_SSL_CIPHER_sk_type(ptr noundef %0) #3 {
  %2 = alloca ptr, align 8
  store ptr %0, ptr %2, align 8, !tbaa !15
  %3 = load ptr, ptr %2, align 8, !tbaa !15
  ret ptr %3
}

; Function Attrs: nounwind uwtable
define internal i32 @setup_cipher_list() #0 {
  %1 = alloca ptr, align 8
  %2 = alloca ptr, align 8
  %3 = alloca ptr, align 8
  %4 = alloca i32, align 4
  %5 = alloca i32, align 4
  %6 = alloca i32, align 4
  %7 = alloca ptr, align 8
  call void @llvm.lifetime.start.p0(i64 8, ptr %1) #4
  store ptr null, ptr %1, align 8, !tbaa !11
  call void @llvm.lifetime.start.p0(i64 8, ptr %2) #4
  store ptr null, ptr %2, align 8, !tbaa !13
  call void @llvm.lifetime.start.p0(i64 8, ptr %3) #4
  store ptr null, ptr %3, align 8, !tbaa !15
  call void @llvm.lifetime.start.p0(i64 4, ptr %4) #4
  call void @llvm.lifetime.start.p0(i64 4, ptr %5) #4
  call void @llvm.lifetime.start.p0(i64 4, ptr %6) #4
  store i32 0, ptr %6, align 4, !tbaa !9
  %8 = call ptr @TLS_server_method()
  %9 = call ptr @SSL_CTX_new(ptr noundef %8)
  store ptr %9, ptr %1, align 8, !tbaa !11
  %10 = call i32 @test_ptr(ptr noundef @.str.14, i32 noundef 147, ptr noundef @.str.19, ptr noundef %9)
  %11 = icmp ne i32 %10, 0
  br i1 %11, label %12, label %22

12:                                               ; preds = %0
  %13 = load ptr, ptr %1, align 8, !tbaa !11
  %14 = call ptr @SSL_new(ptr noundef %13)
  store ptr %14, ptr %2, align 8, !tbaa !13
  %15 = call i32 @test_ptr(ptr noundef @.str.14, i32 noundef 148, ptr noundef @.str.20, ptr noundef %14)
  %16 = icmp ne i32 %15, 0
  br i1 %16, label %17, label %22

17:                                               ; preds = %12
  %18 = load ptr, ptr %2, align 8, !tbaa !13
  %19 = call ptr @SSL_get1_supported_ciphers(ptr noundef %18)
  store ptr %19, ptr %3, align 8, !tbaa !15
  %20 = call i32 @test_ptr(ptr noundef @.str.14, i32 noundef 149, ptr noundef @.str.21, ptr noundef %19)
  %21 = icmp ne i32 %20, 0
  br i1 %21, label %23, label %22

22:                                               ; preds = %17, %12, %0
  br label %68

23:                                               ; preds = %17
  %24 = load ptr, ptr %3, align 8, !tbaa !15
  %25 = call ptr @ossl_check_const_SSL_CIPHER_sk_type(ptr noundef %24)
  %26 = call i32 @OPENSSL_sk_num(ptr noundef %25)
  %27 = sext i32 %26 to i64
  %28 = mul i64 %27, 8
  %29 = call noalias ptr @CRYPTO_malloc(i64 noundef %28, ptr noundef @.str.14, i32 noundef 158)
  store ptr %29, ptr @cipher_list, align 8, !tbaa !17
  %30 = load ptr, ptr @cipher_list, align 8, !tbaa !17
  %31 = call i32 @test_ptr(ptr noundef @.str.14, i32 noundef 159, ptr noundef @.str.22, ptr noundef %30)
  %32 = icmp ne i32 %31, 0
  br i1 %32, label %34, label %33

33:                                               ; preds = %23
  br label %68

34:                                               ; preds = %23
  store i32 0, ptr %5, align 4, !tbaa !9
  store i32 0, ptr %4, align 4, !tbaa !9
  br label %35

35:                                               ; preds = %58, %34
  %36 = load i32, ptr %4, align 4, !tbaa !9
  %37 = load ptr, ptr %3, align 8, !tbaa !15
  %38 = call ptr @ossl_check_const_SSL_CIPHER_sk_type(ptr noundef %37)
  %39 = call i32 @OPENSSL_sk_num(ptr noundef %38)
  %40 = icmp slt i32 %36, %39
  br i1 %40, label %41, label %61

41:                                               ; preds = %35
  call void @llvm.lifetime.start.p0(i64 8, ptr %7) #4
  %42 = load ptr, ptr %3, align 8, !tbaa !15
  %43 = call ptr @ossl_check_const_SSL_CIPHER_sk_type(ptr noundef %42)
  %44 = load i32, ptr %4, align 4, !tbaa !9
  %45 = call ptr @OPENSSL_sk_value(ptr noundef %43, i32 noundef %44)
  store ptr %45, ptr %7, align 8, !tbaa !19
  %46 = load ptr, ptr %7, align 8, !tbaa !19
  %47 = call i32 @SSL_CIPHER_get_auth_nid(ptr noundef %46)
  %48 = icmp eq i32 %47, 1046
  br i1 %48, label %49, label %57

49:                                               ; preds = %41
  %50 = load ptr, ptr %7, align 8, !tbaa !19
  %51 = call ptr @SSL_CIPHER_get_name(ptr noundef %50)
  %52 = load ptr, ptr @cipher_list, align 8, !tbaa !17
  %53 = load i32, ptr %5, align 4, !tbaa !9
  %54 = add nsw i32 %53, 1
  store i32 %54, ptr %5, align 4, !tbaa !9
  %55 = sext i32 %53 to i64
  %56 = getelementptr inbounds ptr, ptr %52, i64 %55
  store ptr %51, ptr %56, align 8, !tbaa !4
  br label %57

57:                                               ; preds = %49, %41
  call void @llvm.lifetime.end.p0(i64 8, ptr %7) #4
  br label %58

58:                                               ; preds = %57
  %59 = load i32, ptr %4, align 4, !tbaa !9
  %60 = add nsw i32 %59, 1
  store i32 %60, ptr %4, align 4, !tbaa !9
  br label %35, !llvm.loop !21

61:                                               ; preds = %35
  %62 = load i32, ptr %5, align 4, !tbaa !9
  %63 = call i32 @test_int_ne(ptr noundef @.str.14, i32 noundef 168, ptr noundef @.str.23, ptr noundef @.str.24, i32 noundef %62, i32 noundef 0)
  %64 = icmp ne i32 %63, 0
  br i1 %64, label %65, label %67

65:                                               ; preds = %61
  %66 = load i32, ptr %5, align 4, !tbaa !9
  store i32 %66, ptr %6, align 4, !tbaa !9
  br label %67

67:                                               ; preds = %65, %61
  br label %68

68:                                               ; preds = %67, %33, %22
  %69 = load ptr, ptr %3, align 8, !tbaa !15
  %70 = call ptr @ossl_check_SSL_CIPHER_sk_type(ptr noundef %69)
  call void @OPENSSL_sk_free(ptr noundef %70)
  %71 = load ptr, ptr %2, align 8, !tbaa !13
  call void @SSL_free(ptr noundef %71)
  %72 = load ptr, ptr %1, align 8, !tbaa !11
  call void @SSL_CTX_free(ptr noundef %72)
  %73 = load i32, ptr %6, align 4, !tbaa !9
  call void @llvm.lifetime.end.p0(i64 4, ptr %6) #4
  call void @llvm.lifetime.end.p0(i64 4, ptr %5) #4
  call void @llvm.lifetime.end.p0(i64 4, ptr %4) #4
  call void @llvm.lifetime.end.p0(i64 8, ptr %3) #4
  call void @llvm.lifetime.end.p0(i64 8, ptr %2) #4
  call void @llvm.lifetime.end.p0(i64 8, ptr %1) #4
  ret i32 %73
}

; Function Attrs: nounwind uwtable
define dso_local i32 @setup_tests() #0 {
  %1 = alloca i32, align 4
  %2 = alloca i32, align 4
  %3 = alloca i32, align 4
  call void @llvm.lifetime.start.p0(i64 4, ptr %2) #4
  %4 = call i32 @test_skip_common_options()
  %5 = icmp ne i32 %4, 0
  br i1 %5, label %7, label %6

6:                                                ; preds = %0
  call void (ptr, i32, ptr, ...) @test_error(ptr noundef @.str.14, i32 noundef 262, ptr noundef @.str.15)
  store i32 0, ptr %1, align 4
  store i32 1, ptr %3, align 4
  br label %23

7:                                                ; preds = %0
  %8 = call ptr @test_get_argument(i64 noundef 0)
  store ptr %8, ptr @cert, align 8, !tbaa !4
  %9 = call i32 @test_ptr(ptr noundef @.str.14, i32 noundef 266, ptr noundef @.str.16, ptr noundef %8)
  %10 = icmp ne i32 %9, 0
  br i1 %10, label %11, label %15

11:                                               ; preds = %7
  %12 = call ptr @test_get_argument(i64 noundef 1)
  store ptr %12, ptr @privkey, align 8, !tbaa !4
  %13 = call i32 @test_ptr(ptr noundef @.str.14, i32 noundef 267, ptr noundef @.str.17, ptr noundef %12)
  %14 = icmp ne i32 %13, 0
  br i1 %14, label %16, label %15

15:                                               ; preds = %11, %7
  store i32 0, ptr %1, align 4
  store i32 1, ptr %3, align 4
  br label %23

16:                                               ; preds = %11
  %17 = call i32 @setup_cipher_list()
  store i32 %17, ptr %2, align 4, !tbaa !9
  %18 = load i32, ptr %2, align 4, !tbaa !9
  %19 = icmp sgt i32 %18, 0
  br i1 %19, label %20, label %22

20:                                               ; preds = %16
  %21 = load i32, ptr %2, align 4, !tbaa !9
  call void @add_all_tests(ptr noundef @.str.18, ptr noundef @test_ssl_corrupt, i32 noundef %21, i32 noundef 1)
  br label %22

22:                                               ; preds = %20, %16
  store i32 1, ptr %1, align 4
  store i32 1, ptr %3, align 4
  br label %23

23:                                               ; preds = %22, %15, %6
  call void @llvm.lifetime.end.p0(i64 4, ptr %2) #4
  %24 = load i32, ptr %1, align 4
  ret i32 %24
}