; Function Attrs: nounwind uwtable
define dso_local range(i32 0, 2) i32 @setup_tests() local_unnamed_addr #1 {
  %1 = tail call i32 @test_skip_common_options() #4
  %.not = icmp eq i32 %1, 0
  br i1 %.not, label %2, label %3

2:                                                ; preds = %0
  tail call void (ptr, i32, ptr, ...) @test_error(ptr noundef nonnull @.str.14, i32 noundef 262, ptr noundef nonnull @.str.15) #4
  br label %43

3:                                                ; preds = %0
  %4 = tail call ptr @test_get_argument(i64 noundef 0) #4
  store ptr %4, ptr @cert, align 8, !tbaa !4
  %5 = tail call i32 @test_ptr(ptr noundef nonnull @.str.14, i32 noundef 266, ptr noundef nonnull @.str.16, ptr noundef %4) #4
  %.not4 = icmp eq i32 %5, 0
  br i1 %.not4, label %43, label %6

6:                                                ; preds = %3
  %7 = tail call ptr @test_get_argument(i64 noundef 1) #4
  store ptr %7, ptr @privkey, align 8, !tbaa !4
  %8 = tail call i32 @test_ptr(ptr noundef nonnull @.str.14, i32 noundef 267, ptr noundef nonnull @.str.17, ptr noundef %7) #4
  %.not5 = icmp eq i32 %8, 0
  br i1 %.not5, label %43, label %9

9:                                                ; preds = %6
  %10 = tail call ptr @TLS_server_method() #4
  %11 = tail call ptr @SSL_CTX_new(ptr noundef %10) #4
  %12 = tail call i32 @test_ptr(ptr noundef nonnull @.str.14, i32 noundef 147, ptr noundef nonnull @.str.19, ptr noundef %11) #4
  %.not.i = icmp eq i32 %12, 0
  br i1 %.not.i, label %setup_cipher_list.exit, label %13

13:                                               ; preds = %9
  %14 = tail call ptr @SSL_new(ptr noundef %11) #4
  %15 = tail call i32 @test_ptr(ptr noundef nonnull @.str.14, i32 noundef 148, ptr noundef nonnull @.str.20, ptr noundef %14) #4
  %.not20.i = icmp eq i32 %15, 0
  br i1 %.not20.i, label %setup_cipher_list.exit, label %16

16:                                               ; preds = %13
  %17 = tail call ptr @SSL_get1_supported_ciphers(ptr noundef %14) #4
  %18 = tail call i32 @test_ptr(ptr noundef nonnull @.str.14, i32 noundef 149, ptr noundef nonnull @.str.21, ptr noundef %17) #4
  %.not21.i = icmp eq i32 %18, 0
  br i1 %.not21.i, label %setup_cipher_list.exit, label %19

19:                                               ; preds = %16
  %20 = tail call i32 @OPENSSL_sk_num(ptr noundef %17) #4
  %21 = sext i32 %20 to i64
  %22 = shl nsw i64 %21, 3
  %23 = tail call noalias ptr @CRYPTO_malloc(i64 noundef %22, ptr noundef nonnull @.str.14, i32 noundef 158) #4
  store ptr %23, ptr @cipher_list, align 8, !tbaa !9
  %24 = tail call i32 @test_ptr(ptr noundef nonnull @.str.14, i32 noundef 159, ptr noundef nonnull @.str.22, ptr noundef %23) #4
  %.not22.i = icmp eq i32 %24, 0
  br i1 %.not22.i, label %setup_cipher_list.exit, label %.preheader.i

.preheader.i:                                     ; preds = %19
  %25 = tail call i32 @OPENSSL_sk_num(ptr noundef %17) #4
  %26 = icmp sgt i32 %25, 0
  br i1 %26, label %.lr.ph.i, label %._crit_edge.i

.lr.ph.i:                                         ; preds = %.preheader.i, %36
  %.01625.i = phi i32 [ %.1.i, %36 ], [ 0, %.preheader.i ]
  %.01724.i = phi i32 [ %37, %36 ], [ 0, %.preheader.i ]
  %27 = tail call ptr @OPENSSL_sk_value(ptr noundef %17, i32 noundef %.01724.i) #4
  %28 = tail call i32 @SSL_CIPHER_get_auth_nid(ptr noundef %27) #4
  %29 = icmp eq i32 %28, 1046
  br i1 %29, label %30, label %36

30:                                               ; preds = %.lr.ph.i
  %31 = tail call ptr @SSL_CIPHER_get_name(ptr noundef %27) #4
  %32 = load ptr, ptr @cipher_list, align 8, !tbaa !9
  %33 = add nsw i32 %.01625.i, 1
  %34 = sext i32 %.01625.i to i64
  %35 = getelementptr inbounds ptr, ptr %32, i64 %34
  store ptr %31, ptr %35, align 8, !tbaa !4
  br label %36

36:                                               ; preds = %30, %.lr.ph.i
  %.1.i = phi i32 [ %33, %30 ], [ %.01625.i, %.lr.ph.i ]
  %37 = add nuw nsw i32 %.01724.i, 1
  %38 = tail call i32 @OPENSSL_sk_num(ptr noundef %17) #4
  %39 = icmp slt i32 %37, %38
  br i1 %39, label %.lr.ph.i, label %._crit_edge.i, !llvm.loop !11

._crit_edge.i:                                    ; preds = %36, %.preheader.i
  %.016.lcssa.i = phi i32 [ 0, %.preheader.i ], [ %.1.i, %36 ]
  %40 = tail call i32 @test_int_ne(ptr noundef nonnull @.str.14, i32 noundef 168, ptr noundef nonnull @.str.23, ptr noundef nonnull @.str.24, i32 noundef %.016.lcssa.i, i32 noundef 0) #4
  %.not23.i = icmp eq i32 %40, 0
  %spec.select = select i1 %.not23.i, i32 0, i32 %.016.lcssa.i
  br label %setup_cipher_list.exit

setup_cipher_list.exit:                           ; preds = %._crit_edge.i, %9, %13, %16, %19
  %.019.i = phi ptr [ %14, %19 ], [ %14, %16 ], [ %14, %13 ], [ null, %9 ], [ %14, %._crit_edge.i ]
  %.018.i = phi ptr [ %17, %19 ], [ %17, %16 ], [ null, %13 ], [ null, %9 ], [ %17, %._crit_edge.i ]
  %.0.i = phi i32 [ 0, %19 ], [ 0, %16 ], [ 0, %13 ], [ 0, %9 ], [ %spec.select, %._crit_edge.i ]
  tail call void @OPENSSL_sk_free(ptr noundef %.018.i) #4
  tail call void @SSL_free(ptr noundef %.019.i) #4
  tail call void @SSL_CTX_free(ptr noundef %11) #4
  %41 = icmp sgt i32 %.0.i, 0
  br i1 %41, label %42, label %43

42:                                               ; preds = %setup_cipher_list.exit
  tail call void @add_all_tests(ptr noundef nonnull @.str.18, ptr noundef nonnull @test_ssl_corrupt, i32 noundef %.0.i, i32 noundef 1) #4
  br label %43

43:                                               ; preds = %setup_cipher_list.exit, %42, %3, %6, %2
  %.0 = phi i32 [ 0, %2 ], [ 0, %6 ], [ 0, %3 ], [ 1, %42 ], [ 1, %setup_cipher_list.exit ]
  ret i32 %.0
}